target datalayout = "e-m:e-p270:32:32-p271:32:32-p272:64:64-i64:64-i128:128-f80:128-n8:16:32:64-S128"
target triple = "x86_64-pc-linux-gnu"

%struct.__va_list_tag = type { i32, i32, ptr, ptr }

@.str.42 = private unnamed_addr constant [131 x i8] c"generated/home/dtcxzyw/WorkSpace/Projects/compilers/llvm-opt-benchmark/bench/gromacs/gromacs/src/gromacs/gmxpreprocess/topdirs.cpp\00", align 1
@.str.65 = private unnamed_addr constant [3 x i8] c"*n\00", align 1

; Function Attrs: inlinehint mustprogress uwtable
define internal void @_ZL15gmx_srenew_implI9DirectiveEvPKcS2_iRPT_m(ptr noundef %0, ptr noundef %1, i32 noundef %2, ptr noundef nonnull align 8 dereferenceable(8) %3, i64 noundef %4) #8 {
  %6 = alloca ptr, align 8
  %7 = alloca ptr, align 8
  %8 = alloca i32, align 4
  %9 = alloca ptr, align 8
  %10 = alloca i64, align 8
  store ptr %0, ptr %6, align 8, !tbaa !8
  store ptr %1, ptr %7, align 8, !tbaa !8
  store i32 %2, ptr %8, align 4, !tbaa !13
  store ptr %3, ptr %9, align 8, !tbaa !279
  store i64 %4, ptr %10, align 8, !tbaa !20
  %11 = load ptr, ptr %6, align 8, !tbaa !8
  %12 = load ptr, ptr %7, align 8, !tbaa !8
  %13 = load i32, ptr %8, align 4, !tbaa !13
  %14 = load ptr, ptr %9, align 8, !tbaa !279
  %15 = load ptr, ptr %14, align 8, !tbaa !106
  %16 = load i64, ptr %10, align 8, !tbaa !20
  %17 = call noundef ptr @_Z12save_reallocPKcS0_iPvmm(ptr noundef %11, ptr noundef %12, i32 noundef %13, ptr noundef %15, i64 noundef %16, i64 noundef 4)
  %18 = load ptr, ptr %9, align 8, !tbaa !279
  store ptr %17, ptr %18, align 8, !tbaa !106
  ret void
}

; Function Attrs: mustprogress uwtable
define internal void @_ZL7set_necPP9Directivez(ptr noundef %0, ...) #0 {
  %2 = alloca ptr, align 8
  %3 = alloca [1 x %struct.__va_list_tag], align 16
  %4 = alloca i32, align 4
  %5 = alloca i32, align 4
  store ptr %0, ptr %2, align 8, !tbaa !279
  call void @llvm.lifetime.start.p0(i64 24, ptr %3) #12
  call void @llvm.lifetime.start.p0(i64 4, ptr %4) #12
  store i32 0, ptr %4, align 4, !tbaa !13
  call void @llvm.lifetime.start.p0(i64 4, ptr %5) #12
  %6 = getelementptr inbounds [1 x %struct.__va_list_tag], ptr %3, i64 0, i64 0
  call void @llvm.va_start.p0(ptr %6)
  br label %7

7:                                                ; preds = %35, %1
  %8 = getelementptr inbounds [1 x %struct.__va_list_tag], ptr %3, i64 0, i64 0
  %9 = getelementptr inbounds nuw %struct.__va_list_tag, ptr %8, i32 0, i32 0
  %10 = load i32, ptr %9, align 16
  %11 = icmp ule i32 %10, 40
  br i1 %11, label %12, label %17

12:                                               ; preds = %7
  %13 = getelementptr inbounds nuw %struct.__va_list_tag, ptr %8, i32 0, i32 3
  %14 = load ptr, ptr %13, align 16
  %15 = getelementptr i8, ptr %14, i32 %10
  %16 = add i32 %10, 8
  store i32 %16, ptr %9, align 16
  br label %21

17:                                               ; preds = %7
  %18 = getelementptr inbounds nuw %struct.__va_list_tag, ptr %8, i32 0, i32 2
  %19 = load ptr, ptr %18, align 8
  %20 = getelementptr i8, ptr %19, i32 8
  store ptr %20, ptr %18, align 8
  br label %21

21:                                               ; preds = %17, %12
  %22 = phi ptr [ %15, %12 ], [ %19, %17 ]
  %23 = load i32, ptr %22, align 4, !tbaa !13
  store i32 %23, ptr %5, align 4, !tbaa !4
  %24 = load ptr, ptr %2, align 8, !tbaa !279
  %25 = load i32, ptr %4, align 4, !tbaa !13
  %26 = add nsw i32 %25, 1
  store i32 %26, ptr %4, align 4, !tbaa !13
  %27 = sext i32 %26 to i64
  call void @_ZL15gmx_srenew_implI9DirectiveEvPKcS2_iRPT_m(ptr noundef @.str.65, ptr noundef @.str.42, i32 noundef 310, ptr noundef nonnull align 8 dereferenceable(8) %24, i64 noundef %27)
  %28 = load i32, ptr %5, align 4, !tbaa !4
  %29 = load ptr, ptr %2, align 8, !tbaa !279
  %30 = load ptr, ptr %29, align 8, !tbaa !106
  %31 = load i32, ptr %4, align 4, !tbaa !13
  %32 = sub nsw i32 %31, 1
  %33 = sext i32 %32 to i64
  %34 = getelementptr inbounds i32, ptr %30, i64 %33
  store i32 %28, ptr %34, align 4, !tbaa !4
  br label %35

35:                                               ; preds = %21
  %36 = load i32, ptr %5, align 4, !tbaa !4
  %37 = icmp ne i32 %36, 41
  br i1 %37, label %7, label %38, !llvm.loop !280

38:                                               ; preds = %35
  %39 = getelementptr inbounds [1 x %struct.__va_list_tag], ptr %3, i64 0, i64 0
  call void @llvm.va_end.p0(ptr %39)
  call void @llvm.lifetime.end.p0(i64 4, ptr %5) #12
  call void @llvm.lifetime.end.p0(i64 4, ptr %4) #12
  call void @llvm.lifetime.end.p0(i64 24, ptr %3) #12
  ret void
}