; Function Attrs: mustprogress uwtable
define internal void @_ZL7set_necPP9Directivez(ptr noundef nonnull captures(none) %0, ...) unnamed_addr #1 {
  %2 = alloca [1 x %struct.__va_list_tag], align 16
  call void @llvm.lifetime.start.p0(i64 24, ptr nonnull %2) #20
  call void @llvm.va_start.p0(ptr nonnull %2)
  %3 = getelementptr inbounds nuw i8, ptr %2, i64 8
  %4 = getelementptr inbounds nuw i8, ptr %2, i64 16
  br label %5

5:                                                ; preds = %16, %1
  %indvars.iv = phi i64 [ %indvars.iv.next, %16 ], [ 0, %1 ]
  %6 = load i32, ptr %2, align 16
  %7 = icmp ult i32 %6, 41
  br i1 %7, label %8, label %13

8:                                                ; preds = %5
  %9 = load ptr, ptr %4, align 16
  %10 = zext nneg i32 %6 to i64
  %11 = getelementptr i8, ptr %9, i64 %10
  %12 = add nuw nsw i32 %6, 8
  store i32 %12, ptr %2, align 16
  br label %16

13:                                               ; preds = %5
  %14 = load ptr, ptr %3, align 8
  %15 = getelementptr i8, ptr %14, i64 8
  store ptr %15, ptr %3, align 8
  br label %16

16:                                               ; preds = %13, %8
  %17 = phi ptr [ %11, %8 ], [ %14, %13 ]
  %18 = load i32, ptr %17, align 4, !tbaa !68
  %indvars.iv.next = add nuw nsw i64 %indvars.iv, 1
  %19 = load ptr, ptr %0, align 8, !tbaa !65
  %20 = call noundef ptr @_Z12save_reallocPKcS0_iPvmm(ptr noundef nonnull @.str.65, ptr noundef nonnull @.str.42, i32 noundef 310, ptr noundef %19, i64 noundef range(i64 -2147483647, 2147483648) %indvars.iv.next, i64 noundef 4)
  store ptr %20, ptr %0, align 8, !tbaa !65
  %21 = getelementptr inbounds nuw i32, ptr %20, i64 %indvars.iv
  store i32 %18, ptr %21, align 4, !tbaa !28
  %.not = icmp eq i32 %18, 41
  br i1 %.not, label %22, label %5, !llvm.loop !70

22:                                               ; preds = %16
  call void @llvm.va_end.p0(ptr nonnull %2)
  call void @llvm.lifetime.end.p0(i64 24, ptr nonnull %2) #20
  ret void
}